target datalayout = "e-m:e-p270:32:32-p271:32:32-p272:64:64-i64:64-i128:128-f80:128-n8:16:32:64-S128"
target triple = "x86_64-unknown-linux-gnu"

%"struct.msdfgen::Vector2" = type { double, double }
%"class.msdfgen::EdgeSegment.base" = type <{ ptr, i32 }>
%"class.msdfgen::QuadraticSegment" = type { %"class.msdfgen::EdgeSegment.base", [3 x %"struct.msdfgen::Vector2"] }

; Function Attrs: mustprogress nounwind uwtable
define dso_local void @_ZN7msdfgen16QuadraticSegment7reverseEv(ptr noundef nonnull align 8 dereferenceable(64) %this) unnamed_addr #4 align 2 {
entry:
  %this.addr = alloca ptr, align 8
  %tmp = alloca %"struct.msdfgen::Vector2", align 8
  store ptr %this, ptr %this.addr, align 8
  %this1 = load ptr, ptr %this.addr, align 8
  %p = getelementptr inbounds %"class.msdfgen::QuadraticSegment", ptr %this1, i32 0, i32 1
  %arrayidx = getelementptr inbounds [3 x %"struct.msdfgen::Vector2"], ptr %p, i64 0, i64 0
  call void @llvm.memcpy.p0.p0.i64(ptr align 8 %tmp, ptr align 8 %arrayidx, i64 16, i1 false)
  %p2 = getelementptr inbounds %"class.msdfgen::QuadraticSegment", ptr %this1, i32 0, i32 1
  %arrayidx3 = getelementptr inbounds [3 x %"struct.msdfgen::Vector2"], ptr %p2, i64 0, i64 2
  %p4 = getelementptr inbounds %"class.msdfgen::QuadraticSegment", ptr %this1, i32 0, i32 1
  %arrayidx5 = getelementptr inbounds [3 x %"struct.msdfgen::Vector2"], ptr %p4, i64 0, i64 0
  call void @llvm.memcpy.p0.p0.i64(ptr align 8 %arrayidx5, ptr align 8 %arrayidx3, i64 16, i1 false)
  %p6 = getelementptr inbounds %"class.msdfgen::QuadraticSegment", ptr %this1, i32 0, i32 1
  %arrayidx7 = getelementptr inbounds [3 x %"struct.msdfgen::Vector2"], ptr %p6, i64 0, i64 2
  call void @llvm.memcpy.p0.p0.i64(ptr align 8 %arrayidx7, ptr align 8 %tmp, i64 16, i1 false)
  ret void
}