; Function Attrs: mustprogress nofree norecurse nosync nounwind willreturn memory(argmem: readwrite) uwtable
define dso_local void @_ZN7msdfgen16QuadraticSegment7reverseEv(ptr nocapture noundef nonnull align 8 dereferenceable(64) %this) unnamed_addr #10 align 2 {
entry:
  %tmp = alloca %"struct.msdfgen::Vector2", align 8
  %p = getelementptr inbounds i8, ptr %this, i64 16
  call void @llvm.memcpy.p0.p0.i64(ptr noundef nonnull align 8 dereferenceable(16) %tmp, ptr noundef nonnull align 8 dereferenceable(16) %p, i64 16, i1 false)
  %arrayidx3 = getelementptr inbounds i8, ptr %this, i64 48
  tail call void @llvm.memcpy.p0.p0.i64(ptr noundef nonnull align 8 dereferenceable(16) %p, ptr noundef nonnull align 8 dereferenceable(16) %arrayidx3, i64 16, i1 false)
  call void @llvm.memcpy.p0.p0.i64(ptr noundef nonnull align 8 dereferenceable(16) %arrayidx3, ptr noundef nonnull align 8 dereferenceable(16) %tmp, i64 16, i1 false)
  ret void
}